target datalayout = "e-m:e-p270:32:32-p271:32:32-p272:64:64-i64:64-i128:128-f80:128-n8:16:32:64-S128"
target triple = "x86_64-pc-linux-gnu"

%struct.SDL_AudioStream = type { ptr, i32, ptr, ptr, ptr, ptr, %struct.SDL_AudioSpec, %struct.SDL_AudioSpec, ptr, ptr, float, float, ptr, %struct.SDL_AudioSpec, ptr, [8 x i32], i64, ptr, i64, i8, ptr, ptr, ptr, ptr, ptr }
%struct.SDL_AudioSpec = type { i32, i32, i32 }
%struct.SDL_LogicalAudioDevice = type { i32, ptr, %struct.SDL_AtomicInt, float, ptr, i8, i8, ptr, ptr, ptr, ptr, ptr, ptr, ptr }
%struct.SDL_AtomicInt = type { i32 }

; Function Attrs: nounwind uwtable
define hidden void @SDL_DestroyAudioStream_REAL(ptr noundef %0) #0 {
  %2 = alloca ptr, align 8
  %3 = alloca i8, align 1
  store ptr %0, ptr %2, align 8
  %4 = load ptr, ptr %2, align 8
  %5 = icmp ne ptr %4, null
  br i1 %5, label %7, label %6

6:                                                ; preds = %1
  br label %47

7:                                                ; preds = %1
  %8 = load ptr, ptr %2, align 8
  %9 = getelementptr inbounds nuw %struct.SDL_AudioStream, ptr %8, i32 0, i32 1
  %10 = load i32, ptr %9, align 8
  call void @SDL_DestroyProperties_REAL(i32 noundef %10)
  %11 = load ptr, ptr %2, align 8
  call void @OnAudioStreamDestroy(ptr noundef %11)
  call void @llvm.lifetime.start.p0(i64 1, ptr %3) #7
  %12 = load ptr, ptr %2, align 8
  %13 = getelementptr inbounds nuw %struct.SDL_AudioStream, ptr %12, i32 0, i32 19
  %14 = load i8, ptr %13, align 8, !range !6, !noundef !7
  %15 = trunc i8 %14 to i1
  %16 = zext i1 %15 to i8
  store i8 %16, ptr %3, align 1
  %17 = load i8, ptr %3, align 1, !range !6, !noundef !7
  %18 = trunc i8 %17 to i1
  br i1 %18, label %19, label %34

19:                                               ; preds = %7
  %20 = load ptr, ptr %2, align 8
  %21 = getelementptr inbounds nuw %struct.SDL_AudioStream, ptr %20, i32 0, i32 20
  %22 = load ptr, ptr %21, align 8
  %23 = icmp ne ptr %22, null
  br i1 %23, label %24, label %33

24:                                               ; preds = %19
  br label %25

25:                                               ; preds = %24
  br label %26

26:                                               ; preds = %25
  br label %27

27:                                               ; preds = %26
  %28 = load ptr, ptr %2, align 8
  %29 = getelementptr inbounds nuw %struct.SDL_AudioStream, ptr %28, i32 0, i32 20
  %30 = load ptr, ptr %29, align 8
  %31 = getelementptr inbounds nuw %struct.SDL_LogicalAudioDevice, ptr %30, i32 0, i32 0
  %32 = load i32, ptr %31, align 8
  call void @SDL_CloseAudioDevice_REAL(i32 noundef %32)
  br label %33

33:                                               ; preds = %27, %19
  br label %36

34:                                               ; preds = %7
  %35 = load ptr, ptr %2, align 8
  call void @SDL_UnbindAudioStream_REAL(ptr noundef %35)
  br label %36

36:                                               ; preds = %34, %33
  %37 = load ptr, ptr %2, align 8
  %38 = getelementptr inbounds nuw %struct.SDL_AudioStream, ptr %37, i32 0, i32 17
  %39 = load ptr, ptr %38, align 8
  call void @SDL_aligned_free_REAL(ptr noundef %39)
  %40 = load ptr, ptr %2, align 8
  %41 = getelementptr inbounds nuw %struct.SDL_AudioStream, ptr %40, i32 0, i32 12
  %42 = load ptr, ptr %41, align 8
  call void @SDL_DestroyAudioQueue(ptr noundef %42)
  %43 = load ptr, ptr %2, align 8
  %44 = getelementptr inbounds nuw %struct.SDL_AudioStream, ptr %43, i32 0, i32 0
  %45 = load ptr, ptr %44, align 8
  call void @SDL_DestroyMutex_REAL(ptr noundef %45)
  %46 = load ptr, ptr %2, align 8
  call void @SDL_free_REAL(ptr noundef %46)
  call void @llvm.lifetime.end.p0(i64 1, ptr %3) #7
  br label %47

47:                                               ; preds = %36, %6
  ret void
}