; Function Attrs: nounwind uwtable
define hidden void @SDL_DestroyAudioStream_REAL(ptr noundef %0) local_unnamed_addr #2 {
  %.not = icmp eq ptr %0, null
  br i1 %.not, label %20, label %2

2:                                                ; preds = %1
  %3 = getelementptr inbounds nuw i8, ptr %0, i64 8
  %4 = load i32, ptr %3, align 8
  tail call void @SDL_DestroyProperties_REAL(i32 noundef %4) #11
  tail call void @OnAudioStreamDestroy(ptr noundef nonnull %0) #11
  %5 = getelementptr inbounds nuw i8, ptr %0, i64 184
  %6 = load i8, ptr %5, align 8, !range !35, !noundef !36
  %7 = trunc nuw i8 %6 to i1
  br i1 %7, label %8, label %13

8:                                                ; preds = %2
  %9 = getelementptr inbounds nuw i8, ptr %0, i64 192
  %10 = load ptr, ptr %9, align 8
  %.not12 = icmp eq ptr %10, null
  br i1 %.not12, label %14, label %11

11:                                               ; preds = %8
  %12 = load i32, ptr %10, align 8
  tail call void @SDL_CloseAudioDevice_REAL(i32 noundef %12) #11
  br label %14

13:                                               ; preds = %2
  tail call void @SDL_UnbindAudioStream_REAL(ptr noundef nonnull %0) #11
  br label %14

14:                                               ; preds = %8, %11, %13
  %15 = getelementptr inbounds nuw i8, ptr %0, i64 168
  %16 = load ptr, ptr %15, align 8
  tail call void @SDL_aligned_free_REAL(ptr noundef %16) #11
  %17 = getelementptr inbounds nuw i8, ptr %0, i64 96
  %18 = load ptr, ptr %17, align 8
  tail call void @SDL_DestroyAudioQueue(ptr noundef %18) #11
  %19 = load ptr, ptr %0, align 8
  tail call void @SDL_DestroyMutex_REAL(ptr noundef %19) #11
  tail call void @SDL_free_REAL(ptr noundef nonnull %0) #11
  br label %20

20:                                               ; preds = %1, %14
  ret void
}